; Function Attrs: mustprogress nounwind uwtable
define void @_ZN9grpc_core5SleepD2Ev(ptr nocapture noundef nonnull readonly align 8 dereferenceable(16) %this) unnamed_addr #4 align 2 personality ptr @__gxx_personality_v0 {
entry:
  %closure_ = getelementptr inbounds i8, ptr %this, i64 8
  %0 = load ptr, ptr %closure_, align 8
  %cmp.not = icmp eq ptr %0, null
  br i1 %cmp.not, label %if.end, label %if.then

if.then:                                          ; preds = %entry
  %refs_.i.i = getelementptr inbounds i8, ptr %0, i64 24
  %1 = load atomic i32, ptr %refs_.i.i acquire, align 4
  %cmp.i.i = icmp eq i32 %1, 1
  br i1 %cmp.i.i, label %delete.notnull.i, label %lor.lhs.false.i

lor.lhs.false.i:                                  ; preds = %if.then
  %2 = tail call align 8 ptr @llvm.threadlocal.address.p0(ptr align 8 @_ZN9grpc_core14promise_detail7ContextIN17grpc_event_engine12experimental11EventEngineEE8current_E)
  %3 = load ptr, ptr %2, align 8
  %cmp.not.i.i = icmp eq ptr %3, null
  br i1 %cmp.not.i.i, label %if.then.i.i, label %_ZN9grpc_core10GetContextIN17grpc_event_engine12experimental11EventEngineEEEPT_v.exit.i

if.then.i.i:                                      ; preds = %lor.lhs.false.i
  invoke void @gpr_assertion_failed(ptr noundef nonnull @.str, i32 noundef 80, ptr noundef nonnull @.str.2) #18
          to label %.noexc unwind label %terminate.lpad

.noexc:                                           ; preds = %if.then.i.i
  unreachable

_ZN9grpc_core10GetContextIN17grpc_event_engine12experimental11EventEngineEEEPT_v.exit.i: ; preds = %lor.lhs.false.i
  %timer_handle_.i = getelementptr inbounds i8, ptr %0, i64 32
  %agg.tmp.sroa.0.0.copyload.i = load i64, ptr %timer_handle_.i, align 8
  %agg.tmp.sroa.2.0.timer_handle_.sroa_idx.i = getelementptr inbounds i8, ptr %0, i64 40
  %agg.tmp.sroa.2.0.copyload.i = load i64, ptr %agg.tmp.sroa.2.0.timer_handle_.sroa_idx.i, align 8
  %vtable.i = load ptr, ptr %3, align 8
  %vfn.i = getelementptr inbounds i8, ptr %vtable.i, i64 88
  %4 = load ptr, ptr %vfn.i, align 8
  %call3.i1 = invoke noundef zeroext i1 %4(ptr noundef nonnull align 8 dereferenceable(24) %3, i64 %agg.tmp.sroa.0.0.copyload.i, i64 %agg.tmp.sroa.2.0.copyload.i)
          to label %call3.i.noexc unwind label %terminate.lpad

call3.i.noexc:                                    ; preds = %_ZN9grpc_core10GetContextIN17grpc_event_engine12experimental11EventEngineEEEPT_v.exit.i
  br i1 %call3.i1, label %delete.notnull.i, label %lor.lhs.false4.i

lor.lhs.false4.i:                                 ; preds = %call3.i.noexc
  %5 = atomicrmw sub ptr %refs_.i.i, i32 1 acq_rel, align 4
  %cmp.i2.i = icmp eq i32 %5, 1
  br i1 %cmp.i2.i, label %delete.notnull.i, label %if.end

delete.notnull.i:                                 ; preds = %lor.lhs.false4.i, %call3.i.noexc, %if.then
  %waker_.i.i = getelementptr inbounds i8, ptr %0, i64 8
  %6 = load ptr, ptr %waker_.i.i, align 8
  %wakeup_mask.i.i.i.i = getelementptr inbounds i8, ptr %0, i64 16
  %7 = load i16, ptr %wakeup_mask.i.i.i.i, align 8
  %vtable.i.i.i.i = load ptr, ptr %6, align 8
  %vfn.i.i.i.i = getelementptr inbounds i8, ptr %vtable.i.i.i.i, i64 16
  %8 = load ptr, ptr %vfn.i.i.i.i, align 8
  invoke void %8(ptr noundef nonnull align 8 dereferenceable(8) %6, i16 noundef zeroext %7)
          to label %_ZN9grpc_core5Sleep13ActiveClosureD2Ev.exit.i unwind label %terminate.lpad.i.i.i

terminate.lpad.i.i.i:                             ; preds = %delete.notnull.i
  %9 = landingpad { ptr, i32 }
          catch ptr null
  %10 = extractvalue { ptr, i32 } %9, 0
  tail call void @__clang_call_terminate(ptr %10) #19
  unreachable

_ZN9grpc_core5Sleep13ActiveClosureD2Ev.exit.i:    ; preds = %delete.notnull.i
  tail call void @_ZdlPv(ptr noundef nonnull %0) #20
  br label %if.end

if.end:                                           ; preds = %_ZN9grpc_core5Sleep13ActiveClosureD2Ev.exit.i, %lor.lhs.false4.i, %entry
  ret void

terminate.lpad:                                   ; preds = %_ZN9grpc_core10GetContextIN17grpc_event_engine12experimental11EventEngineEEEPT_v.exit.i, %if.then.i.i
  %11 = landingpad { ptr, i32 }
          catch ptr null
  %12 = extractvalue { ptr, i32 } %11, 0
  tail call void @__clang_call_terminate(ptr %12) #19
  unreachable
}